target datalayout = "e-m:e-p270:32:32-p271:32:32-p272:64:64-i64:64-i128:128-f80:128-n8:16:32:64-S128"
target triple = "x86_64-unknown-linux-gnu"

%struct.alts_grpc_handshaker_client = type { %struct.alts_handshaker_client, %struct.gpr_refcount, ptr, ptr, ptr, %struct.grpc_closure, ptr, ptr, i8, %struct.grpc_metadata_array, ptr, ptr, ptr, %struct.grpc_slice, i8, %struct.grpc_slice, ptr, i64, %struct.grpc_closure, i32, %struct.grpc_slice, %"class.absl::lts_20230802::Mutex", i8, ptr, i64, ptr }
%struct.alts_handshaker_client = type { ptr }
%struct.gpr_refcount = type { i64 }
%struct.grpc_metadata_array = type { i64, i64, ptr }
%struct.grpc_closure = type { %union.anon, ptr, ptr, %union.anon.0 }
%union.anon = type { ptr }
%union.anon.0 = type { i64 }
%struct.grpc_slice = type { ptr, %"union.grpc_slice::grpc_slice_data" }
%"union.grpc_slice::grpc_slice_data" = type { %"struct.grpc_slice::grpc_slice_data::grpc_slice_refcounted", [8 x i8] }
%"struct.grpc_slice::grpc_slice_data::grpc_slice_refcounted" = type { i64, ptr }
%"class.absl::lts_20230802::Mutex" = type { %"struct.std::atomic" }
%"struct.std::atomic" = type { %"struct.std::__atomic_base" }
%"struct.std::__atomic_base" = type { i64 }
%"class.grpc_core::Timestamp" = type { i64 }

@.str = private unnamed_addr constant [142 x i8] c"generated/home/dtcxzyw/WorkSpace/Projects/compilers/llvm-opt-benchmark/bench/grpc/grpc/src/core/tsi/alts/handshaker/alts_handshaker_client.cc\00", align 1
@.str.13 = private unnamed_addr constant [53 x i8] c"Invalid arguments to alts_handshaker_client_create()\00", align 1
@.str.14 = private unnamed_addr constant [5 x i8] c"lame\00", align 1
@.str.15 = private unnamed_addr constant [40 x i8] c"/grpc.gcp.HandshakerService/DoHandshake\00", align 1

; Function Attrs: mustprogress nounwind uwtable
define linkonce_odr void @_ZNSt13__atomic_baseIlEC2El(ptr noundef nonnull align 8 dereferenceable(8) %this, i64 noundef %__i) unnamed_addr #6 comdat align 2 {
entry:
  %this.addr = alloca ptr, align 8
  %__i.addr = alloca i64, align 8
  store ptr %this, ptr %this.addr, align 8
  store i64 %__i, ptr %__i.addr, align 8
  %this1 = load ptr, ptr %this.addr, align 8
  %_M_i = getelementptr inbounds %"struct.std::__atomic_base", ptr %this1, i32 0, i32 0
  %0 = load i64, ptr %__i.addr, align 8
  store i64 %0, ptr %_M_i, align 8
  ret void
}

; Function Attrs: mustprogress nounwind uwtable
define linkonce_odr void @_ZNSt6atomicIlEC2El(ptr noundef nonnull align 8 dereferenceable(8) %this, i64 noundef %__i) unnamed_addr #6 comdat align 2 {
entry:
  %this.addr = alloca ptr, align 8
  %__i.addr = alloca i64, align 8
  store ptr %this, ptr %this.addr, align 8
  store i64 %__i, ptr %__i.addr, align 8
  %this1 = load ptr, ptr %this.addr, align 8
  %0 = load i64, ptr %__i.addr, align 8
  call void @_ZNSt13__atomic_baseIlEC2El(ptr noundef nonnull align 8 dereferenceable(8) %this1, i64 noundef %0) #3
  ret void
}

; Function Attrs: mustprogress nounwind uwtable
define linkonce_odr void @_ZN9grpc_core9TimestampC2El(ptr noundef nonnull align 8 dereferenceable(8) %this, i64 noundef %millis) unnamed_addr #6 comdat align 2 {
entry:
  %this.addr = alloca ptr, align 8
  %millis.addr = alloca i64, align 8
  store ptr %this, ptr %this.addr, align 8
  store i64 %millis, ptr %millis.addr, align 8
  %this1 = load ptr, ptr %this.addr, align 8
  %millis_ = getelementptr inbounds %"class.grpc_core::Timestamp", ptr %this1, i32 0, i32 0
  %0 = load i64, ptr %millis.addr, align 8
  store i64 %0, ptr %millis_, align 8
  ret void
}

; Function Attrs: mustprogress nounwind uwtable
define linkonce_odr noundef i64 @_ZNSt14numeric_limitsIlE3maxEv() #6 comdat align 2 {
entry:
  ret i64 9223372036854775807
}

; Function Attrs: mustprogress nounwind uwtable
define linkonce_odr void @_ZN4absl12lts_202308025MutexC2Ev(ptr noundef nonnull align 8 dereferenceable(8) %this) unnamed_addr #6 comdat align 2 {
entry:
  %this.addr = alloca ptr, align 8
  store ptr %this, ptr %this.addr, align 8
  %this1 = load ptr, ptr %this.addr, align 8
  %mu_ = getelementptr inbounds %"class.absl::lts_20230802::Mutex", ptr %this1, i32 0, i32 0
  call void @_ZNSt6atomicIlEC2El(ptr noundef nonnull align 8 dereferenceable(8) %mu_, i64 noundef 0) #3
  ret void
}

; Function Attrs: mustprogress nounwind uwtable
define linkonce_odr noundef ptr @_Z17grpc_closure_initP12grpc_closurePFvPvN4absl12lts_202308026StatusEES1_(ptr noundef %closure, ptr noundef %cb, ptr noundef %cb_arg) #6 comdat {
entry:
  %closure.addr = alloca ptr, align 8
  %cb.addr = alloca ptr, align 8
  %cb_arg.addr = alloca ptr, align 8
  store ptr %closure, ptr %closure.addr, align 8
  store ptr %cb, ptr %cb.addr, align 8
  store ptr %cb_arg, ptr %cb_arg.addr, align 8
  %0 = load ptr, ptr %cb.addr, align 8
  %1 = load ptr, ptr %closure.addr, align 8
  %cb1 = getelementptr inbounds %struct.grpc_closure, ptr %1, i32 0, i32 1
  store ptr %0, ptr %cb1, align 8
  %2 = load ptr, ptr %cb_arg.addr, align 8
  %3 = load ptr, ptr %closure.addr, align 8
  %cb_arg2 = getelementptr inbounds %struct.grpc_closure, ptr %3, i32 0, i32 2
  store ptr %2, ptr %cb_arg2, align 8
  %4 = load ptr, ptr %closure.addr, align 8
  %error_data = getelementptr inbounds %struct.grpc_closure, ptr %4, i32 0, i32 3
  store i64 0, ptr %error_data, align 8
  %5 = load ptr, ptr %closure.addr, align 8
  ret ptr %5
}

; Function Attrs: mustprogress uwtable
define linkonce_odr i64 @_ZN9grpc_core9Timestamp9InfFutureEv() #4 comdat align 2 {
entry:
  %retval = alloca %"class.grpc_core::Timestamp", align 8
  %call = call noundef i64 @_ZNSt14numeric_limitsIlE3maxEv() #3
  call void @_ZN9grpc_core9TimestampC2El(ptr noundef nonnull align 8 dereferenceable(8) %retval, i64 noundef %call)
  %coerce.dive = getelementptr inbounds %"class.grpc_core::Timestamp", ptr %retval, i32 0, i32 0
  %0 = load i64, ptr %coerce.dive, align 8
  ret i64 %0
}

; Function Attrs: mustprogress uwtable
define linkonce_odr void @_ZN27alts_grpc_handshaker_clientC2Ev(ptr noundef nonnull align 8 dereferenceable(344) %this) unnamed_addr #4 comdat align 2 {
entry:
  %this.addr = alloca ptr, align 8
  store ptr %this, ptr %this.addr, align 8
  %this1 = load ptr, ptr %this.addr, align 8
  %send_buffer = getelementptr inbounds %struct.alts_grpc_handshaker_client, ptr %this1, i32 0, i32 6
  store ptr null, ptr %send_buffer, align 8
  %recv_buffer = getelementptr inbounds %struct.alts_grpc_handshaker_client, ptr %this1, i32 0, i32 7
  store ptr null, ptr %recv_buffer, align 8
  %inject_read_failure = getelementptr inbounds %struct.alts_grpc_handshaker_client, ptr %this1, i32 0, i32 8
  store i8 0, ptr %inject_read_failure, align 8
  %handshake_status_code = getelementptr inbounds %struct.alts_grpc_handshaker_client, ptr %this1, i32 0, i32 19
  store i32 0, ptr %handshake_status_code, align 8
  %mu = getelementptr inbounds %struct.alts_grpc_handshaker_client, ptr %this1, i32 0, i32 21
  call void @_ZN4absl12lts_202308025MutexC2Ev(ptr noundef nonnull align 8 dereferenceable(8) %mu)
  %receive_status_finished = getelementptr inbounds %struct.alts_grpc_handshaker_client, ptr %this1, i32 0, i32 22
  store i8 0, ptr %receive_status_finished, align 8
  %pending_recv_message_result = getelementptr inbounds %struct.alts_grpc_handshaker_client, ptr %this1, i32 0, i32 23
  store ptr null, ptr %pending_recv_message_result, align 8
  ret void
}

; Function Attrs: mustprogress uwtable
define noundef ptr @_Z34alts_grpc_handshaker_client_createP19alts_tsi_handshakerP12grpc_channelPKcP16grpc_pollset_setP29grpc_alts_credentials_optionsRK10grpc_slicePFvPvN4absl12lts_202308026StatusEEPFv10tsi_resultSC_PKhmP21tsi_handshaker_resultESC_P29alts_handshaker_client_vtablebmPNSt7__cxx1112basic_stringIcSt11char_traitsIcESaIcEEE(ptr noundef %handshaker, ptr noundef %channel, ptr noundef %handshaker_service_url, ptr noundef %interested_parties, ptr noundef %options, ptr noundef nonnull align 8 dereferenceable(32) %target_name, ptr noundef %grpc_cb, ptr noundef %cb, ptr noundef %user_data, ptr noundef %vtable_for_testing, i1 noundef zeroext %is_client, i64 noundef %max_frame_size, ptr noundef %error) #4 personality ptr @__gxx_personality_v0 {
entry:
  %retval = alloca ptr, align 8
  %handshaker.addr = alloca ptr, align 8
  %channel.addr = alloca ptr, align 8
  %handshaker_service_url.addr = alloca ptr, align 8
  %interested_parties.addr = alloca ptr, align 8
  %options.addr = alloca ptr, align 8
  %target_name.addr = alloca ptr, align 8
  %grpc_cb.addr = alloca ptr, align 8
  %cb.addr = alloca ptr, align 8
  %user_data.addr = alloca ptr, align 8
  %vtable_for_testing.addr = alloca ptr, align 8
  %is_client.addr = alloca i8, align 1
  %max_frame_size.addr = alloca i64, align 8
  %error.addr = alloca ptr, align 8
  %client = alloca ptr, align 8
  %exn.slot = alloca ptr, align 8
  %ehselector.slot = alloca i32, align 4
  %ref.tmp = alloca %struct.grpc_slice, align 8
  %agg.tmp = alloca %struct.grpc_slice, align 8
  %ref.tmp12 = alloca %struct.grpc_slice, align 8
  %ref.tmp15 = alloca %struct.grpc_slice, align 8
  %ref.tmp22 = alloca %struct.grpc_slice, align 8
  %agg.tmp23 = alloca %"class.grpc_core::Timestamp", align 8
  store ptr %handshaker, ptr %handshaker.addr, align 8
  store ptr %channel, ptr %channel.addr, align 8
  store ptr %handshaker_service_url, ptr %handshaker_service_url.addr, align 8
  store ptr %interested_parties, ptr %interested_parties.addr, align 8
  store ptr %options, ptr %options.addr, align 8
  store ptr %target_name, ptr %target_name.addr, align 8
  store ptr %grpc_cb, ptr %grpc_cb.addr, align 8
  store ptr %cb, ptr %cb.addr, align 8
  store ptr %user_data, ptr %user_data.addr, align 8
  store ptr %vtable_for_testing, ptr %vtable_for_testing.addr, align 8
  %frombool = zext i1 %is_client to i8
  store i8 %frombool, ptr %is_client.addr, align 1
  store i64 %max_frame_size, ptr %max_frame_size.addr, align 8
  store ptr %error, ptr %error.addr, align 8
  %0 = load ptr, ptr %channel.addr, align 8
  %cmp = icmp eq ptr %0, null
  br i1 %cmp, label %if.then, label %lor.lhs.false

lor.lhs.false:                                    ; preds = %entry
  %1 = load ptr, ptr %handshaker_service_url.addr, align 8
  %cmp1 = icmp eq ptr %1, null
  br i1 %cmp1, label %if.then, label %if.end

if.then:                                          ; preds = %lor.lhs.false, %entry
  call void (ptr, i32, i32, ptr, ...) @gpr_log(ptr noundef @.str, i32 noundef 719, i32 noundef 2, ptr noundef @.str.13)
  store ptr null, ptr %retval, align 8
  br label %return

if.end:                                           ; preds = %lor.lhs.false
  %call = call noalias noundef nonnull ptr @_Znwm(i64 noundef 344) #17
  call void @llvm.memset.p0.i64(ptr align 16 %call, i8 0, i64 344, i1 false)
  invoke void @_ZN27alts_grpc_handshaker_clientC2Ev(ptr noundef nonnull align 8 dereferenceable(344) %call)
          to label %invoke.cont unwind label %lpad

invoke.cont:                                      ; preds = %if.end
  store ptr %call, ptr %client, align 8
  %2 = load ptr, ptr %client, align 8
  %base = getelementptr inbounds %struct.alts_grpc_handshaker_client, ptr %2, i32 0, i32 0
  call void @llvm.memset.p0.i64(ptr align 8 %base, i8 0, i64 8, i1 false)
  %3 = load ptr, ptr %vtable_for_testing.addr, align 8
  %cmp2 = icmp eq ptr %3, null
  br i1 %cmp2, label %cond.true, label %cond.false

cond.true:                                        ; preds = %invoke.cont
  br label %cond.end

cond.false:                                       ; preds = %invoke.cont
  %4 = load ptr, ptr %vtable_for_testing.addr, align 8
  br label %cond.end

cond.end:                                         ; preds = %cond.false, %cond.true
  %cond = phi ptr [ @_ZL6vtable, %cond.true ], [ %4, %cond.false ]
  %5 = load ptr, ptr %client, align 8
  %base3 = getelementptr inbounds %struct.alts_grpc_handshaker_client, ptr %5, i32 0, i32 0
  %vtable = getelementptr inbounds %struct.alts_handshaker_client, ptr %base3, i32 0, i32 0
  store ptr %cond, ptr %vtable, align 8
  %6 = load ptr, ptr %client, align 8
  %refs = getelementptr inbounds %struct.alts_grpc_handshaker_client, ptr %6, i32 0, i32 1
  call void @gpr_ref_init(ptr noundef %refs, i32 noundef 1)
  %7 = load ptr, ptr %handshaker.addr, align 8
  %8 = load ptr, ptr %client, align 8
  %handshaker4 = getelementptr inbounds %struct.alts_grpc_handshaker_client, ptr %8, i32 0, i32 2
  store ptr %7, ptr %handshaker4, align 8
  %9 = load ptr, ptr %client, align 8
  %grpc_caller = getelementptr inbounds %struct.alts_grpc_handshaker_client, ptr %9, i32 0, i32 4
  store ptr @_Z33grpc_call_start_batch_and_executeP9grpc_callPK7grpc_opmP12grpc_closure, ptr %grpc_caller, align 8
  %10 = load ptr, ptr %client, align 8
  %recv_initial_metadata = getelementptr inbounds %struct.alts_grpc_handshaker_client, ptr %10, i32 0, i32 9
  call void @grpc_metadata_array_init(ptr noundef %recv_initial_metadata)
  %11 = load ptr, ptr %cb.addr, align 8
  %12 = load ptr, ptr %client, align 8
  %cb5 = getelementptr inbounds %struct.alts_grpc_handshaker_client, ptr %12, i32 0, i32 10
  store ptr %11, ptr %cb5, align 8
  %13 = load ptr, ptr %user_data.addr, align 8
  %14 = load ptr, ptr %client, align 8
  %user_data6 = getelementptr inbounds %struct.alts_grpc_handshaker_client, ptr %14, i32 0, i32 11
  store ptr %13, ptr %user_data6, align 8
  %15 = load ptr, ptr %options.addr, align 8
  %call7 = call noundef ptr @_Z34grpc_alts_credentials_options_copyPK29grpc_alts_credentials_options(ptr noundef %15)
  %16 = load ptr, ptr %client, align 8
  %options8 = getelementptr inbounds %struct.alts_grpc_handshaker_client, ptr %16, i32 0, i32 12
  store ptr %call7, ptr %options8, align 8
  %17 = load ptr, ptr %target_name.addr, align 8
  call void @llvm.memcpy.p0.p0.i64(ptr align 8 %agg.tmp, ptr align 8 %17, i64 32, i1 false)
  call void @grpc_slice_copy(ptr sret(%struct.grpc_slice) align 8 %ref.tmp, ptr noundef byval(%struct.grpc_slice) align 8 %agg.tmp)
  %18 = load ptr, ptr %client, align 8
  %target_name9 = getelementptr inbounds %struct.alts_grpc_handshaker_client, ptr %18, i32 0, i32 13
  call void @llvm.memcpy.p0.p0.i64(ptr align 8 %target_name9, ptr align 8 %ref.tmp, i64 32, i1 false)
  %19 = load i8, ptr %is_client.addr, align 1
  %tobool = trunc i8 %19 to i1
  %20 = load ptr, ptr %client, align 8
  %is_client10 = getelementptr inbounds %struct.alts_grpc_handshaker_client, ptr %20, i32 0, i32 14
  %frombool11 = zext i1 %tobool to i8
  store i8 %frombool11, ptr %is_client10, align 8
  call void @grpc_empty_slice(ptr sret(%struct.grpc_slice) align 8 %ref.tmp12)
  %21 = load ptr, ptr %client, align 8
  %recv_bytes = getelementptr inbounds %struct.alts_grpc_handshaker_client, ptr %21, i32 0, i32 15
  call void @llvm.memcpy.p0.p0.i64(ptr align 8 %recv_bytes, ptr align 8 %ref.tmp12, i64 32, i1 false)
  %22 = load ptr, ptr %client, align 8
  %buffer_size = getelementptr inbounds %struct.alts_grpc_handshaker_client, ptr %22, i32 0, i32 17
  store i64 256, ptr %buffer_size, align 8
  %23 = load ptr, ptr %client, align 8
  %buffer_size13 = getelementptr inbounds %struct.alts_grpc_handshaker_client, ptr %23, i32 0, i32 17
  %24 = load i64, ptr %buffer_size13, align 8
  %call14 = call ptr @gpr_zalloc(i64 noundef %24)
  %25 = load ptr, ptr %client, align 8
  %buffer = getelementptr inbounds %struct.alts_grpc_handshaker_client, ptr %25, i32 0, i32 16
  store ptr %call14, ptr %buffer, align 8
  call void @grpc_empty_slice(ptr sret(%struct.grpc_slice) align 8 %ref.tmp15)
  %26 = load ptr, ptr %client, align 8
  %handshake_status_details = getelementptr inbounds %struct.alts_grpc_handshaker_client, ptr %26, i32 0, i32 20
  call void @llvm.memcpy.p0.p0.i64(ptr align 8 %handshake_status_details, ptr align 8 %ref.tmp15, i64 32, i1 false)
  %27 = load i64, ptr %max_frame_size.addr, align 8
  %28 = load ptr, ptr %client, align 8
  %max_frame_size16 = getelementptr inbounds %struct.alts_grpc_handshaker_client, ptr %28, i32 0, i32 24
  store i64 %27, ptr %max_frame_size16, align 8
  %29 = load ptr, ptr %error.addr, align 8
  %30 = load ptr, ptr %client, align 8
  %error17 = getelementptr inbounds %struct.alts_grpc_handshaker_client, ptr %30, i32 0, i32 25
  store ptr %29, ptr %error17, align 8
  %31 = load ptr, ptr %handshaker_service_url.addr, align 8
  %call18 = call i32 @strcmp(ptr noundef %31, ptr noundef @.str.14) #18
  %cmp19 = icmp eq i32 %call18, 0
  br i1 %cmp19, label %cond.true20, label %cond.false21

cond.true20:                                      ; preds = %cond.end
  br label %cond.end27

cond.false21:                                     ; preds = %cond.end
  %32 = load ptr, ptr %channel.addr, align 8
  %33 = load ptr, ptr %interested_parties.addr, align 8
  call void @grpc_slice_from_static_string(ptr sret(%struct.grpc_slice) align 8 %ref.tmp22, ptr noundef @.str.15)
  %call24 = call i64 @_ZN9grpc_core9Timestamp9InfFutureEv()
  %coerce.dive = getelementptr inbounds %"class.grpc_core::Timestamp", ptr %agg.tmp23, i32 0, i32 0
  store i64 %call24, ptr %coerce.dive, align 8
  %coerce.dive25 = getelementptr inbounds %"class.grpc_core::Timestamp", ptr %agg.tmp23, i32 0, i32 0
  %34 = load i64, ptr %coerce.dive25, align 8
  %call26 = call noundef ptr @_Z36grpc_channel_create_pollset_set_callP12grpc_channelP9grpc_calljP16grpc_pollset_setRK10grpc_slicePS6_N9grpc_core9TimestampEPv(ptr noundef %32, ptr noundef null, i32 noundef 65535, ptr noundef %33, ptr noundef nonnull align 8 dereferenceable(32) %ref.tmp22, ptr noundef null, i64 %34, ptr noundef null)
  br label %cond.end27

cond.end27:                                       ; preds = %cond.false21, %cond.true20
  %cond28 = phi ptr [ null, %cond.true20 ], [ %call26, %cond.false21 ]
  %35 = load ptr, ptr %client, align 8
  %call29 = getelementptr inbounds %struct.alts_grpc_handshaker_client, ptr %35, i32 0, i32 3
  store ptr %cond28, ptr %call29, align 8
  %36 = load ptr, ptr %client, align 8
  %on_handshaker_service_resp_recv = getelementptr inbounds %struct.alts_grpc_handshaker_client, ptr %36, i32 0, i32 5
  %37 = load ptr, ptr %grpc_cb.addr, align 8
  %38 = load ptr, ptr %client, align 8
  %call30 = call noundef ptr @_Z17grpc_closure_initP12grpc_closurePFvPvN4absl12lts_202308026StatusEES1_(ptr noundef %on_handshaker_service_resp_recv, ptr noundef %37, ptr noundef %38)
  %39 = load ptr, ptr %client, align 8
  %on_status_received = getelementptr inbounds %struct.alts_grpc_handshaker_client, ptr %39, i32 0, i32 18
  %40 = load ptr, ptr %client, align 8
  %call31 = call noundef ptr @_Z17grpc_closure_initP12grpc_closurePFvPvN4absl12lts_202308026StatusEES1_(ptr noundef %on_status_received, ptr noundef @_ZL18on_status_receivedPvN4absl12lts_202308026StatusE, ptr noundef %40)
  %41 = load ptr, ptr %client, align 8
  %base32 = getelementptr inbounds %struct.alts_grpc_handshaker_client, ptr %41, i32 0, i32 0
  store ptr %base32, ptr %retval, align 8
  br label %return

lpad:                                             ; preds = %if.end
  %42 = landingpad { ptr, i32 }
          cleanup
  %43 = extractvalue { ptr, i32 } %42, 0
  store ptr %43, ptr %exn.slot, align 8
  %44 = extractvalue { ptr, i32 } %42, 1
  store i32 %44, ptr %ehselector.slot, align 4
  call void @_ZdlPv(ptr noundef %call) #19
  br label %eh.resume

return:                                           ; preds = %cond.end27, %if.then
  %45 = load ptr, ptr %retval, align 8
  ret ptr %45

eh.resume:                                        ; preds = %lpad
  %exn = load ptr, ptr %exn.slot, align 8
  %sel = load i32, ptr %ehselector.slot, align 4
  %lpad.val = insertvalue { ptr, i32 } poison, ptr %exn, 0
  %lpad.val33 = insertvalue { ptr, i32 } %lpad.val, i32 %sel, 1
  resume { ptr, i32 } %lpad.val33
}