; Function Attrs: mustprogress uwtable
define noundef ptr @_Z34alts_grpc_handshaker_client_createP19alts_tsi_handshakerP12grpc_channelPKcP16grpc_pollset_setP29grpc_alts_credentials_optionsRK10grpc_slicePFvPvN4absl12lts_202308026StatusEEPFv10tsi_resultSC_PKhmP21tsi_handshaker_resultESC_P29alts_handshaker_client_vtablebmPNSt7__cxx1112basic_stringIcSt11char_traitsIcESaIcEEE(ptr noundef %handshaker, ptr noundef %channel, ptr noundef readonly %handshaker_service_url, ptr noundef %interested_parties, ptr noundef %options, ptr nocapture noundef nonnull readonly align 8 dereferenceable(32) %target_name, ptr noundef %grpc_cb, ptr noundef %cb, ptr noundef %user_data, ptr noundef %vtable_for_testing, i1 noundef zeroext %is_client, i64 noundef %max_frame_size, ptr noundef %error) local_unnamed_addr #3 personality ptr @__gxx_personality_v0 {
entry:
  %ref.tmp = alloca %struct.grpc_slice, align 8
  %ref.tmp12 = alloca %struct.grpc_slice, align 8
  %ref.tmp15 = alloca %struct.grpc_slice, align 8
  %ref.tmp22 = alloca %struct.grpc_slice, align 8
  %cmp = icmp eq ptr %channel, null
  %cmp1 = icmp eq ptr %handshaker_service_url, null
  %or.cond = or i1 %cmp, %cmp1
  br i1 %or.cond, label %if.then, label %invoke.cont

if.then:                                          ; preds = %entry
  tail call void (ptr, i32, i32, ptr, ...) @gpr_log(ptr noundef nonnull @.str, i32 noundef 719, i32 noundef 2, ptr noundef nonnull @.str.13)
  br label %return

invoke.cont:                                      ; preds = %entry
  %frombool = zext i1 %is_client to i8
  %call = tail call noalias noundef nonnull dereferenceable(344) ptr @_Znwm(i64 noundef 344) #20
  %cmp2 = icmp eq ptr %vtable_for_testing, null
  %cond = select i1 %cmp2, ptr @_ZL6vtable, ptr %vtable_for_testing
  %0 = getelementptr inbounds i8, ptr %call, i64 8
  tail call void @llvm.memset.p0.i64(ptr noundef nonnull align 8 dereferenceable(336) %0, i8 0, i64 336, i1 false)
  store ptr %cond, ptr %call, align 8
  %refs = getelementptr inbounds i8, ptr %call, i64 8
  tail call void @gpr_ref_init(ptr noundef nonnull %refs, i32 noundef 1)
  %handshaker4 = getelementptr inbounds i8, ptr %call, i64 16
  store ptr %handshaker, ptr %handshaker4, align 8
  %grpc_caller = getelementptr inbounds i8, ptr %call, i64 32
  store ptr @_Z33grpc_call_start_batch_and_executeP9grpc_callPK7grpc_opmP12grpc_closure, ptr %grpc_caller, align 8
  %recv_initial_metadata = getelementptr inbounds i8, ptr %call, i64 96
  tail call void @grpc_metadata_array_init(ptr noundef nonnull %recv_initial_metadata)
  %cb5 = getelementptr inbounds i8, ptr %call, i64 120
  store ptr %cb, ptr %cb5, align 8
  %user_data6 = getelementptr inbounds i8, ptr %call, i64 128
  store ptr %user_data, ptr %user_data6, align 8
  %call7 = tail call noundef ptr @_Z34grpc_alts_credentials_options_copyPK29grpc_alts_credentials_options(ptr noundef %options)
  %options8 = getelementptr inbounds i8, ptr %call, i64 136
  store ptr %call7, ptr %options8, align 8
  call void @grpc_slice_copy(ptr nonnull sret(%struct.grpc_slice) align 8 %ref.tmp, ptr noundef nonnull byval(%struct.grpc_slice) align 8 %target_name)
  %target_name9 = getelementptr inbounds i8, ptr %call, i64 144
  call void @llvm.memcpy.p0.p0.i64(ptr noundef nonnull align 8 dereferenceable(32) %target_name9, ptr noundef nonnull align 8 dereferenceable(32) %ref.tmp, i64 32, i1 false)
  %is_client10 = getelementptr inbounds i8, ptr %call, i64 176
  store i8 %frombool, ptr %is_client10, align 8
  call void @grpc_empty_slice(ptr nonnull sret(%struct.grpc_slice) align 8 %ref.tmp12)
  %recv_bytes = getelementptr inbounds i8, ptr %call, i64 184
  call void @llvm.memcpy.p0.p0.i64(ptr noundef nonnull align 8 dereferenceable(32) %recv_bytes, ptr noundef nonnull align 8 dereferenceable(32) %ref.tmp12, i64 32, i1 false)
  %buffer_size = getelementptr inbounds i8, ptr %call, i64 224
  store i64 256, ptr %buffer_size, align 8
  %call14 = call ptr @gpr_zalloc(i64 noundef 256)
  %buffer = getelementptr inbounds i8, ptr %call, i64 216
  store ptr %call14, ptr %buffer, align 8
  call void @grpc_empty_slice(ptr nonnull sret(%struct.grpc_slice) align 8 %ref.tmp15)
  %handshake_status_details = getelementptr inbounds i8, ptr %call, i64 272
  call void @llvm.memcpy.p0.p0.i64(ptr noundef nonnull align 8 dereferenceable(32) %handshake_status_details, ptr noundef nonnull align 8 dereferenceable(32) %ref.tmp15, i64 32, i1 false)
  %max_frame_size16 = getelementptr inbounds i8, ptr %call, i64 328
  store i64 %max_frame_size, ptr %max_frame_size16, align 8
  %error17 = getelementptr inbounds i8, ptr %call, i64 336
  store ptr %error, ptr %error17, align 8
  %call18 = call i32 @strcmp(ptr noundef nonnull dereferenceable(1) %handshaker_service_url, ptr noundef nonnull dereferenceable(5) @.str.14) #21
  %cmp19 = icmp eq i32 %call18, 0
  br i1 %cmp19, label %cond.end27, label %cond.false21

cond.false21:                                     ; preds = %invoke.cont
  call void @grpc_slice_from_static_string(ptr nonnull sret(%struct.grpc_slice) align 8 %ref.tmp22, ptr noundef nonnull @.str.15)
  %call26 = call noundef ptr @_Z36grpc_channel_create_pollset_set_callP12grpc_channelP9grpc_calljP16grpc_pollset_setRK10grpc_slicePS6_N9grpc_core9TimestampEPv(ptr noundef nonnull %channel, ptr noundef null, i32 noundef 65535, ptr noundef %interested_parties, ptr noundef nonnull align 8 dereferenceable(32) %ref.tmp22, ptr noundef null, i64 9223372036854775807, ptr noundef null)
  br label %cond.end27

cond.end27:                                       ; preds = %invoke.cont, %cond.false21
  %cond28 = phi ptr [ %call26, %cond.false21 ], [ null, %invoke.cont ]
  %call29 = getelementptr inbounds i8, ptr %call, i64 24
  store ptr %cond28, ptr %call29, align 8
  %cb1.i = getelementptr inbounds i8, ptr %call, i64 48
  store ptr %grpc_cb, ptr %cb1.i, align 8
  %cb_arg2.i = getelementptr inbounds i8, ptr %call, i64 56
  store ptr %call, ptr %cb_arg2.i, align 8
  %error_data.i = getelementptr inbounds i8, ptr %call, i64 64
  store i64 0, ptr %error_data.i, align 8
  %cb1.i27 = getelementptr inbounds i8, ptr %call, i64 240
  store ptr @_ZL18on_status_receivedPvN4absl12lts_202308026StatusE, ptr %cb1.i27, align 8
  %cb_arg2.i28 = getelementptr inbounds i8, ptr %call, i64 248
  store ptr %call, ptr %cb_arg2.i28, align 8
  %error_data.i29 = getelementptr inbounds i8, ptr %call, i64 256
  store i64 0, ptr %error_data.i29, align 8
  br label %return

return:                                           ; preds = %cond.end27, %if.then
  %retval.0 = phi ptr [ null, %if.then ], [ %call, %cond.end27 ]
  ret ptr %retval.0
}